; ModuleID = 'source-C-CXX/53/880.cpp'
source_filename = "source-C-CXX/53/880.cpp"
target datalayout = "e-m:e-p270:32:32-p271:32:32-p272:64:64-i64:64-f80:128-n8:16:32:64-S128"
target triple = "x86_64-pc-linux-gnu"

%"class.std::ios_base::Init" = type { i8 }
%"class.std::basic_istream" = type { i32 (...)**, i64, %"class.std::basic_ios" }
%"class.std::basic_ios" = type { %"class.std::ios_base", %"class.std::basic_ostream"*, i8, i8, %"class.std::basic_streambuf"*, %"class.std::ctype"*, %"class.std::num_put"*, %"class.std::num_get"* }
%"class.std::ios_base" = type { i32 (...)**, i64, i64, i32, i32, i32, %"struct.std::ios_base::_Callback_list"*, %"struct.std::ios_base::_Words", [8 x %"struct.std::ios_base::_Words"], i32, %"struct.std::ios_base::_Words"*, %"class.std::locale" }
%"struct.std::ios_base::_Callback_list" = type { %"struct.std::ios_base::_Callback_list"*, void (i32, %"class.std::ios_base"*, i32)*, i32, i32 }
%"struct.std::ios_base::_Words" = type { i8*, i64 }
%"class.std::locale" = type { %"class.std::locale::_Impl"* }
%"class.std::locale::_Impl" = type { i32, %"class.std::locale::facet"**, i64, %"class.std::locale::facet"**, i8** }
%"class.std::locale::facet" = type <{ i32 (...)**, i32, [4 x i8] }>
%"class.std::basic_ostream" = type { i32 (...)**, %"class.std::basic_ios" }
%"class.std::basic_streambuf" = type { i32 (...)**, i8*, i8*, i8*, i8*, i8*, i8*, %"class.std::locale" }
%"class.std::ctype" = type <{ %"class.std::locale::facet.base", [4 x i8], %struct.__locale_struct*, i8, [7 x i8], i32*, i32*, i16*, i8, [256 x i8], [256 x i8], i8, [6 x i8] }>
%"class.std::locale::facet.base" = type <{ i32 (...)**, i32 }>
%struct.__locale_struct = type { [13 x %struct.__locale_data*], i16*, i32*, i32*, [13 x i8*] }
%struct.__locale_data = type opaque
%"class.std::num_put" = type { %"class.std::locale::facet.base", [4 x i8] }
%"class.std::num_get" = type { %"class.std::locale::facet.base", [4 x i8] }

@_ZStL8__ioinit = internal global %"class.std::ios_base::Init" zeroinitializer, align 1
@__dso_handle = external hidden global i8
@apple = dso_local local_unnamed_addr global [1000 x i32] zeroinitializer, align 16
@_ZSt3cin = external global %"class.std::basic_istream", align 8
@_ZSt4cout = external global %"class.std::basic_ostream", align 8
@llvm.global_ctors = appending global [1 x { i32, void ()*, i8* }] [{ i32, void ()*, i8* } { i32 65535, void ()* @_GLOBAL__sub_I_880.cpp, i8* null }]

declare void @_ZNSt8ios_base4InitC1Ev(%"class.std::ios_base::Init"* nonnull align 1 dereferenceable(1)) unnamed_addr #0

; Function Attrs: nounwind
declare void @_ZNSt8ios_base4InitD1Ev(%"class.std::ios_base::Init"* nonnull align 1 dereferenceable(1)) unnamed_addr #1

; Function Attrs: nofree nounwind
declare i32 @__cxa_atexit(void (i8*)*, i8*, i8*) local_unnamed_addr #2

; Function Attrs: mustprogress norecurse sspstrong uwtable
define dso_local i32 @main() local_unnamed_addr #3 {
  %1 = alloca i32, align 4
  %2 = alloca i32, align 4
  %3 = bitcast i32* %1 to i8*
  call void @llvm.lifetime.start.p0i8(i64 4, i8* nonnull %3) #7
  %4 = bitcast i32* %2 to i8*
  call void @llvm.lifetime.start.p0i8(i64 4, i8* nonnull %4) #7
  %5 = call nonnull align 8 dereferenceable(16) %"class.std::basic_istream"* @_ZNSirsERi(%"class.std::basic_istream"* nonnull align 8 dereferenceable(16) @_ZSt3cin, i32* nonnull align 4 dereferenceable(4) %1)
  %6 = call nonnull align 8 dereferenceable(16) %"class.std::basic_istream"* @_ZNSirsERi(%"class.std::basic_istream"* nonnull align 8 dereferenceable(16) %5, i32* nonnull align 4 dereferenceable(4) %2)
  %7 = load i32, i32* %1, align 4, !tbaa !5
  %8 = load i32, i32* %2, align 4
  %9 = icmp slt i32 %7, 1
  br i1 %9, label %73, label %10

10:                                               ; preds = %0
  %11 = add nuw i32 %7, 1
  %12 = zext i32 %11 to i64
  %13 = add nsw i64 %12, -1
  %14 = icmp ult i64 %13, 8
  br i1 %14, label %71, label %15

15:                                               ; preds = %10
  %16 = and i64 %13, -8
  %17 = or i64 %16, 1
  %18 = insertelement <4 x i32> poison, i32 %8, i32 0
  %19 = shufflevector <4 x i32> %18, <4 x i32> poison, <4 x i32> zeroinitializer
  %20 = insertelement <4 x i32> poison, i32 %8, i32 0
  %21 = shufflevector <4 x i32> %20, <4 x i32> poison, <4 x i32> zeroinitializer
  %22 = add nsw i64 %16, -8
  %23 = lshr exact i64 %22, 3
  %24 = add nuw nsw i64 %23, 1
  %25 = and i64 %24, 3
  %26 = icmp ult i64 %22, 24
  br i1 %26, label %55, label %27

27:                                               ; preds = %15
  %28 = and i64 %24, 4611686018427387900
  br label %29

29:                                               ; preds = %29, %27
  %30 = phi i64 [ 0, %27 ], [ %52, %29 ]
  %31 = phi i64 [ %28, %27 ], [ %53, %29 ]
  %32 = or i64 %30, 1
  %33 = getelementptr inbounds [1000 x i32], [1000 x i32]* @apple, i64 0, i64 %32
  %34 = bitcast i32* %33 to <4 x i32>*
  store <4 x i32> %19, <4 x i32>* %34, align 4, !tbaa !5
  %35 = getelementptr inbounds i32, i32* %33, i64 4
  %36 = bitcast i32* %35 to <4 x i32>*
  store <4 x i32> %21, <4 x i32>* %36, align 4, !tbaa !5
  %37 = or i64 %30, 9
  %38 = getelementptr inbounds [1000 x i32], [1000 x i32]* @apple, i64 0, i64 %37
  %39 = bitcast i32* %38 to <4 x i32>*
  store <4 x i32> %19, <4 x i32>* %39, align 4, !tbaa !5
  %40 = getelementptr inbounds i32, i32* %38, i64 4
  %41 = bitcast i32* %40 to <4 x i32>*
  store <4 x i32> %21, <4 x i32>* %41, align 4, !tbaa !5
  %42 = or i64 %30, 17
  %43 = getelementptr inbounds [1000 x i32], [1000 x i32]* @apple, i64 0, i64 %42
  %44 = bitcast i32* %43 to <4 x i32>*
  store <4 x i32> %19, <4 x i32>* %44, align 4, !tbaa !5
  %45 = getelementptr inbounds i32, i32* %43, i64 4
  %46 = bitcast i32* %45 to <4 x i32>*
  store <4 x i32> %21, <4 x i32>* %46, align 4, !tbaa !5
  %47 = or i64 %30, 25
  %48 = getelementptr inbounds [1000 x i32], [1000 x i32]* @apple, i64 0, i64 %47
  %49 = bitcast i32* %48 to <4 x i32>*
  store <4 x i32> %19, <4 x i32>* %49, align 4, !tbaa !5
  %50 = getelementptr inbounds i32, i32* %48, i64 4
  %51 = bitcast i32* %50 to <4 x i32>*
  store <4 x i32> %21, <4 x i32>* %51, align 4, !tbaa !5
  %52 = add nuw i64 %30, 32
  %53 = add i64 %31, -4
  %54 = icmp eq i64 %53, 0
  br i1 %54, label %55, label %29, !llvm.loop !9

55:                                               ; preds = %29, %15
  %56 = phi i64 [ 0, %15 ], [ %52, %29 ]
  %57 = icmp eq i64 %25, 0
  br i1 %57, label %69, label %58

58:                                               ; preds = %55, %58
  %59 = phi i64 [ %66, %58 ], [ %56, %55 ]
  %60 = phi i64 [ %67, %58 ], [ %25, %55 ]
  %61 = or i64 %59, 1
  %62 = getelementptr inbounds [1000 x i32], [1000 x i32]* @apple, i64 0, i64 %61
  %63 = bitcast i32* %62 to <4 x i32>*
  store <4 x i32> %19, <4 x i32>* %63, align 4, !tbaa !5
  %64 = getelementptr inbounds i32, i32* %62, i64 4
  %65 = bitcast i32* %64 to <4 x i32>*
  store <4 x i32> %21, <4 x i32>* %65, align 4, !tbaa !5
  %66 = add nuw i64 %59, 8
  %67 = add i64 %60, -1
  %68 = icmp eq i64 %67, 0
  br i1 %68, label %69, label %58, !llvm.loop !12

69:                                               ; preds = %58, %55
  %70 = icmp eq i64 %13, %16
  br i1 %70, label %73, label %71

71:                                               ; preds = %10, %69
  %72 = phi i64 [ 1, %10 ], [ %17, %69 ]
  br label %101

73:                                               ; preds = %101, %69, %0
  %74 = sext i32 %7 to i64
  %75 = getelementptr inbounds [1000 x i32], [1000 x i32]* @apple, i64 0, i64 %74
  %76 = add nsw i32 %7, -1
  %77 = icmp sgt i32 %7, 1
  %78 = load i32, i32* %75, align 4, !tbaa !5
  %79 = add nsw i32 %78, %7
  store i32 %79, i32* %75, align 4, !tbaa !5
  br i1 %77, label %80, label %106

80:                                               ; preds = %73
  %81 = zext i32 %7 to i64
  %82 = getelementptr inbounds [1000 x i32], [1000 x i32]* @apple, i64 0, i64 %81
  br label %83

83:                                               ; preds = %80, %98
  %84 = load i32, i32* %82, align 4, !tbaa !5
  br label %85

85:                                               ; preds = %91, %83
  %86 = phi i32 [ %84, %83 ], [ %94, %91 ]
  %87 = phi i32 [ %7, %83 ], [ %88, %91 ]
  %88 = add nsw i32 %87, -1
  %89 = srem i32 %86, %76
  %90 = icmp eq i32 %89, 0
  br i1 %90, label %91, label %98

91:                                               ; preds = %85
  %92 = mul nsw i32 %86, %7
  %93 = sdiv i32 %92, %76
  %94 = add nsw i32 %8, %93
  %95 = zext i32 %88 to i64
  %96 = getelementptr inbounds [1000 x i32], [1000 x i32]* @apple, i64 0, i64 %95
  store i32 %94, i32* %96, align 4, !tbaa !5
  %97 = icmp sgt i32 %87, 2
  br i1 %97, label %85, label %106, !llvm.loop !14

98:                                               ; preds = %85
  %99 = load i32, i32* %75, align 4, !tbaa !5
  %100 = add nsw i32 %99, %7
  store i32 %100, i32* %75, align 4, !tbaa !5
  br label %83

101:                                              ; preds = %71, %101
  %102 = phi i64 [ %104, %101 ], [ %72, %71 ]
  %103 = getelementptr inbounds [1000 x i32], [1000 x i32]* @apple, i64 0, i64 %102
  store i32 %8, i32* %103, align 4, !tbaa !5
  %104 = add nuw nsw i64 %102, 1
  %105 = icmp eq i64 %104, %12
  br i1 %105, label %73, label %101, !llvm.loop !15

106:                                              ; preds = %91, %73
  %107 = load i32, i32* getelementptr inbounds ([1000 x i32], [1000 x i32]* @apple, i64 0, i64 1), align 4, !tbaa !5
  %108 = call nonnull align 8 dereferenceable(8) %"class.std::basic_ostream"* @_ZNSolsEi(%"class.std::basic_ostream"* nonnull align 8 dereferenceable(8) @_ZSt4cout, i32 %107)
  %109 = bitcast %"class.std::basic_ostream"* %108 to i8**
  %110 = load i8*, i8** %109, align 8, !tbaa !17
  %111 = getelementptr i8, i8* %110, i64 -24
  %112 = bitcast i8* %111 to i64*
  %113 = load i64, i64* %112, align 8
  %114 = bitcast %"class.std::basic_ostream"* %108 to i8*
  %115 = add nsw i64 %113, 240
  %116 = getelementptr inbounds i8, i8* %114, i64 %115
  %117 = bitcast i8* %116 to %"class.std::ctype"**
  %118 = load %"class.std::ctype"*, %"class.std::ctype"** %117, align 8, !tbaa !19
  %119 = icmp eq %"class.std::ctype"* %118, null
  br i1 %119, label %120, label %121

120:                                              ; preds = %106
  call void @_ZSt16__throw_bad_castv() #8
  unreachable

121:                                              ; preds = %106
  %122 = getelementptr inbounds %"class.std::ctype", %"class.std::ctype"* %118, i64 0, i32 8
  %123 = load i8, i8* %122, align 8, !tbaa !23
  %124 = icmp eq i8 %123, 0
  br i1 %124, label %128, label %125

125:                                              ; preds = %121
  %126 = getelementptr inbounds %"class.std::ctype", %"class.std::ctype"* %118, i64 0, i32 9, i64 10
  %127 = load i8, i8* %126, align 1, !tbaa !25
  br label %134

128:                                              ; preds = %121
  call void @_ZNKSt5ctypeIcE13_M_widen_initEv(%"class.std::ctype"* nonnull align 8 dereferenceable(570) %118)
  %129 = bitcast %"class.std::ctype"* %118 to i8 (%"class.std::ctype"*, i8)***
  %130 = load i8 (%"class.std::ctype"*, i8)**, i8 (%"class.std::ctype"*, i8)*** %129, align 8, !tbaa !17
  %131 = getelementptr inbounds i8 (%"class.std::ctype"*, i8)*, i8 (%"class.std::ctype"*, i8)** %130, i64 6
  %132 = load i8 (%"class.std::ctype"*, i8)*, i8 (%"class.std::ctype"*, i8)** %131, align 8
  %133 = call signext i8 %132(%"class.std::ctype"* nonnull align 8 dereferenceable(570) %118, i8 signext 10)
  br label %134

134:                                              ; preds = %125, %128
  %135 = phi i8 [ %127, %125 ], [ %133, %128 ]
  %136 = call nonnull align 8 dereferenceable(8) %"class.std::basic_ostream"* @_ZNSo3putEc(%"class.std::basic_ostream"* nonnull align 8 dereferenceable(8) %108, i8 signext %135)
  %137 = call nonnull align 8 dereferenceable(8) %"class.std::basic_ostream"* @_ZNSo5flushEv(%"class.std::basic_ostream"* nonnull align 8 dereferenceable(8) %136)
  call void @llvm.lifetime.end.p0i8(i64 4, i8* nonnull %4) #7
  call void @llvm.lifetime.end.p0i8(i64 4, i8* nonnull %3) #7
  ret i32 0
}

; Function Attrs: argmemonly mustprogress nofree nosync nounwind willreturn
declare void @llvm.lifetime.start.p0i8(i64 immarg, i8* nocapture) #4

declare nonnull align 8 dereferenceable(16) %"class.std::basic_istream"* @_ZNSirsERi(%"class.std::basic_istream"* nonnull align 8 dereferenceable(16), i32* nonnull align 4 dereferenceable(4)) local_unnamed_addr #0

declare nonnull align 8 dereferenceable(8) %"class.std::basic_ostream"* @_ZNSolsEi(%"class.std::basic_ostream"* nonnull align 8 dereferenceable(8), i32) local_unnamed_addr #0

; Function Attrs: argmemonly mustprogress nofree nosync nounwind willreturn
declare void @llvm.lifetime.end.p0i8(i64 immarg, i8* nocapture) #4

declare nonnull align 8 dereferenceable(8) %"class.std::basic_ostream"* @_ZNSo3putEc(%"class.std::basic_ostream"* nonnull align 8 dereferenceable(8), i8 signext) local_unnamed_addr #0

declare nonnull align 8 dereferenceable(8) %"class.std::basic_ostream"* @_ZNSo5flushEv(%"class.std::basic_ostream"* nonnull align 8 dereferenceable(8)) local_unnamed_addr #0

; Function Attrs: noreturn
declare void @_ZSt16__throw_bad_castv() local_unnamed_addr #5

declare void @_ZNKSt5ctypeIcE13_M_widen_initEv(%"class.std::ctype"* nonnull align 8 dereferenceable(570)) local_unnamed_addr #0

; Function Attrs: sspstrong uwtable
define internal void @_GLOBAL__sub_I_880.cpp() #6 section ".text.startup" {
  tail call void @_ZNSt8ios_base4InitC1Ev(%"class.std::ios_base::Init"* nonnull align 1 dereferenceable(1) @_ZStL8__ioinit)
  %1 = tail call i32 @__cxa_atexit(void (i8*)* bitcast (void (%"class.std::ios_base::Init"*)* @_ZNSt8ios_base4InitD1Ev to void (i8*)*), i8* getelementptr inbounds (%"class.std::ios_base::Init", %"class.std::ios_base::Init"* @_ZStL8__ioinit, i64 0, i32 0), i8* nonnull @__dso_handle) #7
  ret void
}


!llvm.module.flags = !{!0, !1, !2, !3}
!llvm.ident = !{!4}

!0 = !{i32 1, !"wchar_size", i32 4}
!1 = !{i32 7, !"PIC Level", i32 2}
!2 = !{i32 7, !"PIE Level", i32 2}
!3 = !{i32 7, !"uwtable", i32 1}
!4 = !{!"clang version 13.0.0"}
!5 = !{!6, !6, i64 0}
!6 = !{!"int", !7, i64 0}
!7 = !{!"omnipotent char", !8, i64 0}
!8 = !{!"Simple C++ TBAA"}
!9 = distinct !{!9, !10, !11}
!10 = !{!"llvm.loop.mustprogress"}
!11 = !{!"llvm.loop.isvectorized", i32 1}
!12 = distinct !{!12, !13}
!13 = !{!"llvm.loop.unroll.disable"}
!14 = distinct !{!14, !10}
!15 = distinct !{!15, !10, !16, !11}
!16 = !{!"llvm.loop.unroll.runtime.disable"}
!17 = !{!18, !18, i64 0}
!18 = !{!"vtable pointer", !8, i64 0}
!19 = !{!20, !21, i64 240}
!20 = !{!"_ZTSSt9basic_iosIcSt11char_traitsIcEE", !21, i64 216, !7, i64 224, !22, i64 225, !21, i64 232, !21, i64 240, !21, i64 248, !21, i64 256}
!21 = !{!"any pointer", !7, i64 0}
!22 = !{!"bool", !7, i64 0}
!23 = !{!24, !7, i64 56}
!24 = !{!"_ZTSSt5ctypeIcE", !21, i64 16, !22, i64 24, !21, i64 32, !21, i64 40, !21, i64 48, !7, i64 56, !7, i64 57, !7, i64 313, !7, i64 569}
!25 = !{!7, !7, i64 0}
